target datalayout = "e-m:e-p270:32:32-p271:32:32-p272:64:64-i64:64-i128:128-f80:128-n8:16:32:64-S128"
target triple = "x86_64-pc-linux-gnu"

%struct.If_Box_t_ = type { ptr, i8, i8, i8, i8, i32, i32, i32, ptr }

; Function Attrs: nounwind uwtable
define ptr @If_BoxStart(ptr noundef %0, i32 noundef %1, i32 noundef %2, i32 noundef %3, i32 noundef %4, i32 noundef %5, i32 noundef %6) #0 {
  %8 = alloca ptr, align 8
  %9 = alloca i32, align 4
  %10 = alloca i32, align 4
  %11 = alloca i32, align 4
  %12 = alloca i32, align 4
  %13 = alloca i32, align 4
  %14 = alloca i32, align 4
  %15 = alloca ptr, align 8
  store ptr %0, ptr %8, align 8, !tbaa !3
  store i32 %1, ptr %9, align 4, !tbaa !8
  store i32 %2, ptr %10, align 4, !tbaa !8
  store i32 %3, ptr %11, align 4, !tbaa !8
  store i32 %4, ptr %12, align 4, !tbaa !8
  store i32 %5, ptr %13, align 4, !tbaa !8
  store i32 %6, ptr %14, align 4, !tbaa !8
  call void @llvm.lifetime.start.p0(i64 8, ptr %15) #10
  %16 = call noalias ptr @calloc(i64 noundef 1, i64 noundef 32) #11
  store ptr %16, ptr %15, align 8, !tbaa !10
  %17 = load ptr, ptr %8, align 8, !tbaa !3
  %18 = load ptr, ptr %15, align 8, !tbaa !10
  %19 = getelementptr inbounds nuw %struct.If_Box_t_, ptr %18, i32 0, i32 0
  store ptr %17, ptr %19, align 8, !tbaa !12
  %20 = load i32, ptr %9, align 4, !tbaa !8
  %21 = load ptr, ptr %15, align 8, !tbaa !10
  %22 = getelementptr inbounds nuw %struct.If_Box_t_, ptr %21, i32 0, i32 5
  store i32 %20, ptr %22, align 4, !tbaa !15
  %23 = load i32, ptr %12, align 4, !tbaa !8
  %24 = trunc i32 %23 to i8
  %25 = load ptr, ptr %15, align 8, !tbaa !10
  %26 = getelementptr inbounds nuw %struct.If_Box_t_, ptr %25, i32 0, i32 1
  store i8 %24, ptr %26, align 8, !tbaa !16
  %27 = load i32, ptr %13, align 4, !tbaa !8
  %28 = trunc i32 %27 to i8
  %29 = load ptr, ptr %15, align 8, !tbaa !10
  %30 = getelementptr inbounds nuw %struct.If_Box_t_, ptr %29, i32 0, i32 2
  store i8 %28, ptr %30, align 1, !tbaa !17
  %31 = load i32, ptr %14, align 4, !tbaa !8
  %32 = trunc i32 %31 to i8
  %33 = load ptr, ptr %15, align 8, !tbaa !10
  %34 = getelementptr inbounds nuw %struct.If_Box_t_, ptr %33, i32 0, i32 3
  store i8 %32, ptr %34, align 2, !tbaa !18
  %35 = load i32, ptr %10, align 4, !tbaa !8
  %36 = load ptr, ptr %15, align 8, !tbaa !10
  %37 = getelementptr inbounds nuw %struct.If_Box_t_, ptr %36, i32 0, i32 6
  store i32 %35, ptr %37, align 8, !tbaa !19
  %38 = load i32, ptr %11, align 4, !tbaa !8
  %39 = load ptr, ptr %15, align 8, !tbaa !10
  %40 = getelementptr inbounds nuw %struct.If_Box_t_, ptr %39, i32 0, i32 7
  store i32 %38, ptr %40, align 4, !tbaa !20
  %41 = load i32, ptr %10, align 4, !tbaa !8
  %42 = load i32, ptr %11, align 4, !tbaa !8
  %43 = mul nsw i32 %41, %42
  %44 = sext i32 %43 to i64
  %45 = call noalias ptr @calloc(i64 noundef %44, i64 noundef 4) #11
  %46 = load ptr, ptr %15, align 8, !tbaa !10
  %47 = getelementptr inbounds nuw %struct.If_Box_t_, ptr %46, i32 0, i32 8
  store ptr %45, ptr %47, align 8, !tbaa !21
  %48 = load ptr, ptr %15, align 8, !tbaa !10
  call void @llvm.lifetime.end.p0(i64 8, ptr %15) #10
  ret ptr %48
}