; Function Attrs: mustprogress nofree nounwind willreturn memory(write, argmem: none, inaccessiblemem: readwrite) uwtable
define noalias noundef ptr @If_BoxStart(ptr noundef %0, i32 noundef %1, i32 noundef %2, i32 noundef %3, i32 noundef %4, i32 noundef %5, i32 noundef %6) local_unnamed_addr #0 {
  %8 = tail call noalias dereferenceable_or_null(32) ptr @calloc(i64 noundef 1, i64 noundef 32) #18
  store ptr %0, ptr %8, align 8, !tbaa !3
  %9 = getelementptr inbounds nuw i8, ptr %8, i64 12
  store i32 %1, ptr %9, align 4, !tbaa !11
  %10 = trunc i32 %4 to i8
  %11 = getelementptr inbounds nuw i8, ptr %8, i64 8
  store i8 %10, ptr %11, align 8, !tbaa !12
  %12 = trunc i32 %5 to i8
  %13 = getelementptr inbounds nuw i8, ptr %8, i64 9
  store i8 %12, ptr %13, align 1, !tbaa !13
  %14 = trunc i32 %6 to i8
  %15 = getelementptr inbounds nuw i8, ptr %8, i64 10
  store i8 %14, ptr %15, align 2, !tbaa !14
  %16 = getelementptr inbounds nuw i8, ptr %8, i64 16
  store i32 %2, ptr %16, align 8, !tbaa !15
  %17 = getelementptr inbounds nuw i8, ptr %8, i64 20
  store i32 %3, ptr %17, align 4, !tbaa !16
  %18 = mul nsw i32 %3, %2
  %19 = sext i32 %18 to i64
  %20 = tail call noalias ptr @calloc(i64 noundef %19, i64 noundef 4) #18
  %21 = getelementptr inbounds nuw i8, ptr %8, i64 24
  store ptr %20, ptr %21, align 8, !tbaa !17
  ret ptr %8
}